target datalayout = "e-m:e-p270:32:32-p271:32:32-p272:64:64-i64:64-i128:128-f80:128-n8:16:32:64-S128"
target triple = "x86_64-unknown-linux-gnu"

%struct.task_cputime = type { i64, i64, i64 }

; Function Attrs: fn_ret_thunk_extern nounwind null_pointer_is_valid
define internal fastcc i64 @cpu_clock_sample_group(i32 noundef %0, ptr noundef %1, i1 noundef zeroext %2) unnamed_addr #1 align 16 {
  %4 = alloca %struct.task_cputime, align 8
  %5 = alloca %struct.task_cputime, align 8
  %6 = alloca [3 x i64], align 16
  %7 = getelementptr inbounds i8, ptr %1, i64 1880
  %8 = load ptr, ptr %7, align 8
  call void @llvm.lifetime.start.p0(i64 24, ptr nonnull %6) #11
  call void @llvm.memset.p0.i64(ptr noundef nonnull align 16 dereferenceable(24) %6, i8 0, i64 24, i1 false), !annotation !6
  %9 = getelementptr inbounds i8, ptr %8, i64 352
  %10 = load volatile i32, ptr %9, align 8
  %11 = icmp eq i32 %10, 0
  br i1 %11, label %12, label %88

12:                                               ; preds = %3
  br i1 %2, label %13, label %79

13:                                               ; preds = %12
  %14 = getelementptr inbounds i8, ptr %8, i64 256
  %15 = load volatile i32, ptr %9, align 8
  %16 = icmp eq i32 %15, 0
  br i1 %16, label %17, label %70

17:                                               ; preds = %13
  call void @llvm.lifetime.start.p0(i64 24, ptr nonnull %5) #11
  call void @llvm.memset.p0.i64(ptr noundef nonnull align 8 dereferenceable(24) %5, i8 0, i64 24, i1 false), !annotation !6
  call void @thread_group_cputime(ptr noundef %1, ptr noundef nonnull %5) #11
  %18 = getelementptr inbounds i8, ptr %5, i64 8
  %19 = load i64, ptr %18, align 8
  %20 = load volatile i64, ptr %14, align 8
  %21 = icmp ult i64 %20, %19
  br i1 %21, label %22, label %34

22:                                               ; preds = %30, %17
  %23 = phi i64 [ %31, %30 ], [ %20, %17 ]
  %24 = call { i8, i64 } asm sideeffect ".pushsection .smp_locks,\22a\22\0A.balign 4\0A.long 671f - .\0A.popsection\0A671:\0A\09lock; cmpxchgq $3, $1\0A\09/* output condition code z*/\0A", "={@ccz},=*m,={ax},r,*m,2,~{memory},~{dirflag},~{fpsr},~{flags}"(ptr elementtype(i64) %14, i64 %19, ptr elementtype(i64) %14, i64 %23) #11, !srcloc !25
  %25 = extractvalue { i8, i64 } %24, 0
  %26 = icmp ult i8 %25, 2
  call void @llvm.assume(i1 %26)
  %27 = icmp eq i8 %25, 0
  br i1 %27, label %28, label %30, !prof !7

28:                                               ; preds = %22
  %29 = extractvalue { i8, i64 } %24, 1
  br label %30

30:                                               ; preds = %28, %22
  %31 = phi i64 [ %23, %22 ], [ %29, %28 ]
  %32 = icmp ult i64 %31, %19
  %33 = select i1 %27, i1 %32, i1 false
  br i1 %33, label %22, label %34, !llvm.loop !26

34:                                               ; preds = %30, %17
  %35 = getelementptr inbounds i8, ptr %8, i64 264
  %36 = load i64, ptr %5, align 8
  %37 = load volatile i64, ptr %35, align 8
  %38 = icmp ult i64 %37, %36
  br i1 %38, label %39, label %51

39:                                               ; preds = %47, %34
  %40 = phi i64 [ %48, %47 ], [ %37, %34 ]
  %41 = call { i8, i64 } asm sideeffect ".pushsection .smp_locks,\22a\22\0A.balign 4\0A.long 671f - .\0A.popsection\0A671:\0A\09lock; cmpxchgq $3, $1\0A\09/* output condition code z*/\0A", "={@ccz},=*m,={ax},r,*m,2,~{memory},~{dirflag},~{fpsr},~{flags}"(ptr elementtype(i64) %35, i64 %36, ptr elementtype(i64) %35, i64 %40) #11, !srcloc !25
  %42 = extractvalue { i8, i64 } %41, 0
  %43 = icmp ult i8 %42, 2
  call void @llvm.assume(i1 %43)
  %44 = icmp eq i8 %42, 0
  br i1 %44, label %45, label %47, !prof !7

45:                                               ; preds = %39
  %46 = extractvalue { i8, i64 } %41, 1
  br label %47

47:                                               ; preds = %45, %39
  %48 = phi i64 [ %40, %39 ], [ %46, %45 ]
  %49 = icmp ult i64 %48, %36
  %50 = select i1 %44, i1 %49, i1 false
  br i1 %50, label %39, label %51, !llvm.loop !26

51:                                               ; preds = %47, %34
  %52 = getelementptr inbounds i8, ptr %8, i64 272
  %53 = getelementptr inbounds i8, ptr %5, i64 16
  %54 = load i64, ptr %53, align 8
  %55 = load volatile i64, ptr %52, align 8
  %56 = icmp ult i64 %55, %54
  br i1 %56, label %57, label %69

57:                                               ; preds = %65, %51
  %58 = phi i64 [ %66, %65 ], [ %55, %51 ]
  %59 = call { i8, i64 } asm sideeffect ".pushsection .smp_locks,\22a\22\0A.balign 4\0A.long 671f - .\0A.popsection\0A671:\0A\09lock; cmpxchgq $3, $1\0A\09/* output condition code z*/\0A", "={@ccz},=*m,={ax},r,*m,2,~{memory},~{dirflag},~{fpsr},~{flags}"(ptr elementtype(i64) %52, i64 %54, ptr elementtype(i64) %52, i64 %58) #11, !srcloc !25
  %60 = extractvalue { i8, i64 } %59, 0
  %61 = icmp ult i8 %60, 2
  call void @llvm.assume(i1 %61)
  %62 = icmp eq i8 %60, 0
  br i1 %62, label %63, label %65, !prof !7

63:                                               ; preds = %57
  %64 = extractvalue { i8, i64 } %59, 1
  br label %65

65:                                               ; preds = %63, %57
  %66 = phi i64 [ %58, %57 ], [ %64, %63 ]
  %67 = icmp ult i64 %66, %54
  %68 = select i1 %62, i1 %67, i1 false
  br i1 %68, label %57, label %69, !llvm.loop !26

69:                                               ; preds = %65, %51
  store volatile i32 1, ptr %9, align 8
  call void @llvm.lifetime.end.p0(i64 24, ptr nonnull %5) #11
  br label %70

70:                                               ; preds = %69, %13
  %71 = load volatile i64, ptr %14, align 8
  %72 = getelementptr inbounds i8, ptr %8, i64 264
  %73 = load volatile i64, ptr %72, align 8
  %74 = getelementptr inbounds i8, ptr %8, i64 272
  %75 = load volatile i64, ptr %74, align 8
  %76 = add i64 %73, %71
  store i64 %76, ptr %6, align 16
  %77 = getelementptr inbounds i8, ptr %6, i64 8
  store i64 %71, ptr %77, align 8
  %78 = getelementptr inbounds i8, ptr %6, i64 16
  store i64 %75, ptr %78, align 16
  br label %98

79:                                               ; preds = %12
  call void @llvm.lifetime.start.p0(i64 24, ptr nonnull %4) #11
  call void @llvm.memset.p0.i64(ptr noundef nonnull align 8 dereferenceable(24) %4, i8 0, i64 24, i1 false), !annotation !6
  call void @thread_group_cputime(ptr noundef %1, ptr noundef nonnull %4) #11
  %80 = load i64, ptr %4, align 8
  %81 = getelementptr inbounds i8, ptr %4, i64 8
  %82 = load i64, ptr %81, align 8
  %83 = getelementptr inbounds i8, ptr %4, i64 16
  %84 = load i64, ptr %83, align 8
  %85 = add i64 %82, %80
  store i64 %85, ptr %6, align 16
  %86 = getelementptr inbounds i8, ptr %6, i64 8
  store i64 %82, ptr %86, align 8
  %87 = getelementptr inbounds i8, ptr %6, i64 16
  store i64 %84, ptr %87, align 16
  call void @llvm.lifetime.end.p0(i64 24, ptr nonnull %4) #11
  br label %98

88:                                               ; preds = %3
  %89 = getelementptr inbounds i8, ptr %8, i64 256
  %90 = load volatile i64, ptr %89, align 8
  %91 = getelementptr inbounds i8, ptr %8, i64 264
  %92 = load volatile i64, ptr %91, align 8
  %93 = getelementptr inbounds i8, ptr %8, i64 272
  %94 = load volatile i64, ptr %93, align 8
  %95 = add i64 %92, %90
  store i64 %95, ptr %6, align 16
  %96 = getelementptr inbounds i8, ptr %6, i64 8
  store i64 %90, ptr %96, align 8
  %97 = getelementptr inbounds i8, ptr %6, i64 16
  store i64 %94, ptr %97, align 16
  br label %98

98:                                               ; preds = %88, %79, %70
  %99 = zext nneg i32 %0 to i64
  %100 = getelementptr [3 x i64], ptr %6, i64 0, i64 %99
  %101 = load i64, ptr %100, align 8
  call void @llvm.lifetime.end.p0(i64 24, ptr nonnull %6) #11
  ret i64 %101
}